(lp0
(lp1
S'gsl_sf_clausen_e'
p2
a(lp3
(lp4
S'double'
p5
aS'x'
p6
aaaS'gsl_sf_clausen'
p7
aa(lp8
S'gsl_sf_laguerre_1_e'
p9
a(lp10
(lp11
g5
aS'a'
p12
aa(lp13
g5
ag6
aaaS'gsl_sf_laguerre_1'
p14
aa(lp15
S'gsl_sf_laguerre_2_e'
p16
a(lp17
(lp18
g5
ag12
aa(lp19
g5
ag6
aaaS'gsl_sf_laguerre_2'
p20
aa(lp21
S'gsl_sf_laguerre_3_e'
p22
a(lp23
(lp24
g5
ag12
aa(lp25
g5
ag6
aaaS'gsl_sf_laguerre_3'
p26
aa(lp27
S'gsl_sf_multiply_e'
p28
a(lp29
(lp30
g5
ag6
aa(lp31
g5
aS'y'
p32
aaaS'gsl_sf_multiply'
p33
aa(lp34
S'gsl_sf_dilog_e'
p35
a(lp36
(lp37
g5
ag6
aaaS'gsl_sf_dilog'
p38
aa(lp39
S'gsl_sf_bessel_I0_e'
p40
a(lp41
(lp42
g5
ag6
aaaS'gsl_sf_bessel_I0'
p43
aa(lp44
S'gsl_sf_bessel_I0_scaled_e'
p45
a(lp46
(lp47
g5
ag6
aaaS'gsl_sf_bessel_I0_scaled'
p48
aa(lp49
S'gsl_sf_bessel_I1_e'
p50
a(lp51
(lp52
g5
ag6
aaaS'gsl_sf_bessel_I1'
p53
aa(lp54
S'gsl_sf_bessel_I1_scaled_e'
p55
a(lp56
(lp57
g5
ag6
aaaS'gsl_sf_bessel_I1_scaled'
p58
aa(lp59
S'gsl_sf_bessel_Inu_e'
p60
a(lp61
(lp62
g5
aS'nu'
p63
aa(lp64
g5
ag6
aaaS'gsl_sf_bessel_Inu'
p65
aa(lp66
S'gsl_sf_bessel_Inu_scaled_e'
p67
a(lp68
(lp69
g5
aS'nu'
p70
aa(lp71
g5
ag6
aaaS'gsl_sf_bessel_Inu_scaled'
p72
aa(lp73
S'gsl_sf_bessel_J0_e'
p74
a(lp75
(lp76
g5
ag6
aaaS'gsl_sf_bessel_J0'
p77
aa(lp78
S'gsl_sf_bessel_J1_e'
p79
a(lp80
(lp81
g5
ag6
aaaS'gsl_sf_bessel_J1'
p82
aa(lp83
S'gsl_sf_bessel_Jnu_e'
p84
a(lp85
(lp86
g5
aS'nu'
p87
aa(lp88
g5
ag6
aaaS'gsl_sf_bessel_Jnu'
p89
aa(lp90
S'gsl_sf_bessel_K0_e'
p91
a(lp92
(lp93
g5
ag6
aaaS'gsl_sf_bessel_K0'
p94
aa(lp95
S'gsl_sf_bessel_K0_scaled_e'
p96
a(lp97
(lp98
g5
ag6
aaaS'gsl_sf_bessel_K0_scaled'
p99
aa(lp100
S'gsl_sf_bessel_K1_e'
p101
a(lp102
(lp103
g5
ag6
aaaS'gsl_sf_bessel_K1'
p104
aa(lp105
S'gsl_sf_bessel_K1_scaled_e'
p106
a(lp107
(lp108
g5
ag6
aaaS'gsl_sf_bessel_K1_scaled'
p109
aa(lp110
S'gsl_sf_bessel_Knu_e'
p111
a(lp112
(lp113
g5
aS'nu'
p114
aa(lp115
g5
ag6
aaaS'gsl_sf_bessel_Knu'
p116
aa(lp117
S'gsl_sf_bessel_Knu_scaled_e'
p118
a(lp119
(lp120
g5
aS'nu'
p121
aa(lp122
g5
ag6
aaaS'gsl_sf_bessel_Knu_scaled'
p123
aa(lp124
S'gsl_sf_bessel_Y0_e'
p125
a(lp126
(lp127
g5
ag6
aaaS'gsl_sf_bessel_Y0'
p128
aa(lp129
S'gsl_sf_bessel_Y1_e'
p130
a(lp131
(lp132
g5
ag6
aaaS'gsl_sf_bessel_Y1'
p133
aa(lp134
S'gsl_sf_bessel_Ynu_e'
p135
a(lp136
(lp137
g5
aS'nu'
p138
aa(lp139
g5
ag6
aaaS'gsl_sf_bessel_Ynu'
p140
aa(lp141
S'gsl_sf_bessel_i0_scaled_e'
p142
a(lp143
(lp144
g5
ag6
aaaS'gsl_sf_bessel_i0_scaled'
p145
aa(lp146
S'gsl_sf_bessel_i1_scaled_e'
p147
a(lp148
(lp149
g5
ag6
aaaS'gsl_sf_bessel_i1_scaled'
p150
aa(lp151
S'gsl_sf_bessel_i2_scaled_e'
p152
a(lp153
(lp154
g5
ag6
aaaS'gsl_sf_bessel_i2_scaled'
p155
aa(lp156
S'gsl_sf_bessel_j0_e'
p157
a(lp158
(lp159
g5
ag6
aaaS'gsl_sf_bessel_j0'
p160
aa(lp161
S'gsl_sf_bessel_j1_e'
p162
a(lp163
(lp164
g5
ag6
aaaS'gsl_sf_bessel_j1'
p165
aa(lp166
S'gsl_sf_bessel_j2_e'
p167
a(lp168
(lp169
g5
ag6
aaaS'gsl_sf_bessel_j2'
p170
aa(lp171
S'gsl_sf_bessel_k0_scaled_e'
p172
a(lp173
(lp174
g5
ag6
aaaS'gsl_sf_bessel_k0_scaled'
p175
aa(lp176
S'gsl_sf_bessel_k1_scaled_e'
p177
a(lp178
(lp179
g5
ag6
aaaS'gsl_sf_bessel_k1_scaled'
p180
aa(lp181
S'gsl_sf_bessel_k2_scaled_e'
p182
a(lp183
(lp184
g5
ag6
aaaS'gsl_sf_bessel_k2_scaled'
p185
aa(lp186
S'gsl_sf_bessel_lnKnu_e'
p187
a(lp188
(lp189
g5
aS'nu'
p190
aa(lp191
g5
ag6
aaaS'gsl_sf_bessel_lnKnu'
p192
aa(lp193
S'gsl_sf_bessel_y0_e'
p194
a(lp195
(lp196
g5
ag6
aaaS'gsl_sf_bessel_y0'
p197
aa(lp198
S'gsl_sf_bessel_y1_e'
p199
a(lp200
(lp201
g5
ag6
aaaS'gsl_sf_bessel_y1'
p202
aa(lp203
S'gsl_sf_bessel_y2_e'
p204
a(lp205
(lp206
g5
ag6
aaaS'gsl_sf_bessel_y2'
p207
aa(lp208
S'gsl_sf_erf_Q_e'
p209
a(lp210
(lp211
g5
ag6
aaaS'gsl_sf_erf_Q'
p212
aa(lp213
S'gsl_sf_erf_Z_e'
p214
a(lp215
(lp216
g5
ag6
aaaS'gsl_sf_erf_Z'
p217
aa(lp218
S'gsl_sf_erf_e'
p219
a(lp220
(lp221
g5
ag6
aaaS'gsl_sf_erf'
p222
aa(lp223
S'gsl_sf_erfc_e'
p224
a(lp225
(lp226
g5
ag6
aaaS'gsl_sf_erfc'
p227
aa(lp228
S'gsl_sf_hazard_e'
p229
a(lp230
(lp231
g5
ag6
aaaS'gsl_sf_hazard'
p232
aa(lp233
S'gsl_sf_log_erfc_e'
p234
a(lp235
(lp236
g5
ag6
aaaS'gsl_sf_log_erfc'
p237
aa(lp238
S'gsl_sf_lambert_W0_e'
p239
a(lp240
(lp241
g5
ag6
aaaS'gsl_sf_lambert_W0'
p242
aa(lp243
S'gsl_sf_lambert_Wm1_e'
p244
a(lp245
(lp246
g5
ag6
aaaS'gsl_sf_lambert_Wm1'
p247
aa(lp248
S'gsl_sf_hydrogenicR_1_e'
p249
a(lp250
(lp251
g5
aS'Z'
p252
aa(lp253
g5
aS'r'
p254
aaaS'gsl_sf_hydrogenicR_1'
p255
aa(lp256
S'gsl_sf_airy_Ai_deriv_e'
p257
a(lp258
(lp259
g5
ag6
aa(lp260
S'gsl_mode_t'
p261
aS'mode'
p262
aaaS'gsl_sf_airy_Ai_deriv'
p263
aa(lp264
S'gsl_sf_airy_Ai_deriv_scaled_e'
p265
a(lp266
(lp267
g5
ag6
aa(lp268
g261
aS'mode'
p269
aaaS'gsl_sf_airy_Ai_deriv_scaled'
p270
aa(lp271
S'gsl_sf_airy_Ai_e'
p272
a(lp273
(lp274
g5
ag6
aa(lp275
g261
aS'mode'
p276
aaaS'gsl_sf_airy_Ai'
p277
aa(lp278
S'gsl_sf_airy_Ai_scaled_e'
p279
a(lp280
(lp281
g5
ag6
aa(lp282
g261
aS'mode'
p283
aaaS'gsl_sf_airy_Ai_scaled'
p284
aa(lp285
S'gsl_sf_airy_Bi_deriv_e'
p286
a(lp287
(lp288
g5
ag6
aa(lp289
g261
aS'mode'
p290
aaaS'gsl_sf_airy_Bi_deriv'
p291
aa(lp292
S'gsl_sf_airy_Bi_deriv_scaled_e'
p293
a(lp294
(lp295
g5
ag6
aa(lp296
g261
aS'mode'
p297
aaaS'gsl_sf_airy_Bi_deriv_scaled'
p298
aa(lp299
S'gsl_sf_airy_Bi_e'
p300
a(lp301
(lp302
g5
ag6
aa(lp303
g261
aS'mode'
p304
aaaS'gsl_sf_airy_Bi'
p305
aa(lp306
S'gsl_sf_airy_Bi_scaled_e'
p307
a(lp308
(lp309
g5
ag6
aa(lp310
g261
aS'mode'
p311
aaaS'gsl_sf_airy_Bi_scaled'
p312
aa(lp313
S'gsl_sf_fermi_dirac_0_e'
p314
a(lp315
(lp316
g5
ag6
aaaS'gsl_sf_fermi_dirac_0'
p317
aa(lp318
S'gsl_sf_fermi_dirac_1_e'
p319
a(lp320
(lp321
g5
ag6
aaaS'gsl_sf_fermi_dirac_1'
p322
aa(lp323
S'gsl_sf_fermi_dirac_2_e'
p324
a(lp325
(lp326
g5
ag6
aaaS'gsl_sf_fermi_dirac_2'
p327
aa(lp328
S'gsl_sf_fermi_dirac_3half_e'
p329
a(lp330
(lp331
g5
ag6
aaaS'gsl_sf_fermi_dirac_3half'
p332
aa(lp333
S'gsl_sf_fermi_dirac_half_e'
p334
a(lp335
(lp336
g5
ag6
aaaS'gsl_sf_fermi_dirac_half'
p337
aa(lp338
S'gsl_sf_fermi_dirac_inc_0_e'
p339
a(lp340
(lp341
g5
ag6
aa(lp342
g5
aS'b'
p343
aaaS'gsl_sf_fermi_dirac_inc_0'
p344
aa(lp345
S'gsl_sf_fermi_dirac_m1_e'
p346
a(lp347
(lp348
g5
ag6
aaaS'gsl_sf_fermi_dirac_m1'
p349
aa(lp350
S'gsl_sf_fermi_dirac_mhalf_e'
p351
a(lp352
(lp353
g5
ag6
aaaS'gsl_sf_fermi_dirac_mhalf'
p354
aa(lp355
S'gsl_sf_conicalP_0_e'
p356
a(lp357
(lp358
g5
aS'lambda'
p359
aa(lp360
g5
ag6
aaaS'gsl_sf_conicalP_0'
p361
aa(lp362
S'gsl_sf_conicalP_1_e'
p363
a(lp364
(lp365
g5
aS'lambda'
p366
aa(lp367
g5
ag6
aaaS'gsl_sf_conicalP_1'
p368
aa(lp369
S'gsl_sf_conicalP_half_e'
p370
a(lp371
(lp372
g5
aS'lambda'
p373
aa(lp374
g5
ag6
aaaS'gsl_sf_conicalP_half'
p375
aa(lp376
S'gsl_sf_conicalP_mhalf_e'
p377
a(lp378
(lp379
g5
aS'lambda'
p380
aa(lp381
g5
ag6
aaaS'gsl_sf_conicalP_mhalf'
p382
aa(lp383
S'gsl_sf_legendre_H3d_0_e'
p384
a(lp385
(lp386
g5
aS'lambda'
p387
aa(lp388
g5
aS'eta'
p389
aaaS'gsl_sf_legendre_H3d_0'
p390
aa(lp391
S'gsl_sf_legendre_H3d_1_e'
p392
a(lp393
(lp394
g5
aS'lambda'
p395
aa(lp396
g5
aS'eta'
p397
aaaS'gsl_sf_legendre_H3d_1'
p398
aa(lp399
S'gsl_sf_legendre_P1_e'
p400
a(lp401
(lp402
g5
ag6
aaaS'gsl_sf_legendre_P1'
p403
aa(lp404
S'gsl_sf_legendre_P2_e'
p405
a(lp406
(lp407
g5
ag6
aaaS'gsl_sf_legendre_P2'
p408
aa(lp409
S'gsl_sf_legendre_P3_e'
p410
a(lp411
(lp412
g5
ag6
aaaS'gsl_sf_legendre_P3'
p413
aa(lp414
S'gsl_sf_legendre_Q0_e'
p415
a(lp416
(lp417
g5
ag6
aaaS'gsl_sf_legendre_Q0'
p418
aa(lp419
S'gsl_sf_legendre_Q1_e'
p420
a(lp421
(lp422
g5
ag6
aaaS'gsl_sf_legendre_Q1'
p423
aa(lp424
S'gsl_sf_gegenpoly_1_e'
p425
a(lp426
(lp427
g5
aS'lambda'
p428
aa(lp429
g5
ag6
aaaS'gsl_sf_gegenpoly_1'
p430
aa(lp431
S'gsl_sf_gegenpoly_2_e'
p432
a(lp433
(lp434
g5
aS'lambda'
p435
aa(lp436
g5
ag6
aaaS'gsl_sf_gegenpoly_2'
p437
aa(lp438
S'gsl_sf_gegenpoly_3_e'
p439
a(lp440
(lp441
g5
aS'lambda'
p442
aa(lp443
g5
ag6
aaaS'gsl_sf_gegenpoly_3'
p444
aa(lp445
S'gsl_sf_log_1plusx_e'
p446
a(lp447
(lp448
g5
ag6
aaaS'gsl_sf_log_1plusx'
p449
aa(lp450
S'gsl_sf_log_1plusx_mx_e'
p451
a(lp452
(lp453
g5
ag6
aaaS'gsl_sf_log_1plusx_mx'
p454
aa(lp455
S'gsl_sf_log_abs_e'
p456
a(lp457
(lp458
g5
ag6
aaaS'gsl_sf_log_abs'
p459
aa(lp460
S'gsl_sf_log_e'
p461
a(lp462
(lp463
g5
ag6
aaaS'gsl_sf_log'
p464
aa(lp465
S'gsl_sf_cos_e'
p466
a(lp467
(lp468
g5
ag6
aaaS'gsl_sf_cos'
p469
aa(lp470
S'gsl_sf_hypot_e'
p471
a(lp472
(lp473
g5
ag6
aa(lp474
g5
ag32
aaaS'gsl_sf_hypot'
p475
aa(lp476
S'gsl_sf_lncosh_e'
p477
a(lp478
(lp479
g5
ag6
aaaS'gsl_sf_lncosh'
p480
aa(lp481
S'gsl_sf_lnsinh_e'
p482
a(lp483
(lp484
g5
ag6
aaaS'gsl_sf_lnsinh'
p485
aa(lp486
S'gsl_sf_sin_e'
p487
a(lp488
(lp489
g5
ag6
aaaS'gsl_sf_sin'
p490
aa(lp491
S'gsl_sf_sinc_e'
p492
a(lp493
(lp494
g5
ag6
aaaS'gsl_sf_sinc'
p495
aa(lp496
S'gsl_sf_transport_2_e'
p497
a(lp498
(lp499
g5
ag6
aaaS'gsl_sf_transport_2'
p500
aa(lp501
S'gsl_sf_transport_3_e'
p502
a(lp503
(lp504
g5
ag6
aaaS'gsl_sf_transport_3'
p505
aa(lp506
S'gsl_sf_transport_4_e'
p507
a(lp508
(lp509
g5
ag6
aaaS'gsl_sf_transport_4'
p510
aa(lp511
S'gsl_sf_transport_5_e'
p512
a(lp513
(lp514
g5
ag6
aaaS'gsl_sf_transport_5'
p515
aa(lp516
S'gsl_sf_synchrotron_1_e'
p517
a(lp518
(lp519
g5
ag6
aaaS'gsl_sf_synchrotron_1'
p520
aa(lp521
S'gsl_sf_synchrotron_2_e'
p522
a(lp523
(lp524
g5
ag6
aaaS'gsl_sf_synchrotron_2'
p525
aa(lp526
S'gsl_sf_beta_e'
p527
a(lp528
(lp529
g5
ag12
aa(lp530
g5
ag343
aaaS'gsl_sf_beta'
p531
aa(lp532
S'gsl_sf_beta_inc_e'
p533
a(lp534
(lp535
g5
ag12
aa(lp536
g5
ag343
aa(lp537
g5
ag6
aaaS'gsl_sf_beta_inc'
p538
aa(lp539
S'gsl_sf_gamma_e'
p540
a(lp541
(lp542
g5
ag6
aaaS'gsl_sf_gamma'
p543
aa(lp544
S'gsl_sf_gamma_inc_P_e'
p545
a(lp546
(lp547
g5
ag12
aa(lp548
g5
ag6
aaaS'gsl_sf_gamma_inc_P'
p549
aa(lp550
S'gsl_sf_gamma_inc_Q_e'
p551
a(lp552
(lp553
g5
ag12
aa(lp554
g5
ag6
aaaS'gsl_sf_gamma_inc_Q'
p555
aa(lp556
S'gsl_sf_gamma_inc_e'
p557
a(lp558
(lp559
g5
ag12
aa(lp560
g5
ag6
aaaS'gsl_sf_gamma_inc'
p561
aa(lp562
S'gsl_sf_gammainv_e'
p563
a(lp564
(lp565
g5
ag6
aaaS'gsl_sf_gammainv'
p566
aa(lp567
S'gsl_sf_gammastar_e'
p568
a(lp569
(lp570
g5
ag6
aaaS'gsl_sf_gammastar'
p571
aa(lp572
S'gsl_sf_lnbeta_e'
p573
a(lp574
(lp575
g5
ag12
aa(lp576
g5
ag343
aaaS'gsl_sf_lnbeta'
p577
aa(lp578
S'gsl_sf_lngamma_e'
p579
a(lp580
(lp581
g5
ag6
aaaS'gsl_sf_lngamma'
p582
aa(lp583
S'gsl_sf_lnpoch_e'
p584
a(lp585
(lp586
g5
ag12
aa(lp587
g5
ag6
aaaS'gsl_sf_lnpoch'
p588
aa(lp589
S'gsl_sf_poch_e'
p590
a(lp591
(lp592
g5
ag12
aa(lp593
g5
ag6
aaaS'gsl_sf_poch'
p594
aa(lp595
S'gsl_sf_pochrel_e'
p596
a(lp597
(lp598
g5
ag12
aa(lp599
g5
ag6
aaaS'gsl_sf_pochrel'
p600
aa(lp601
S'gsl_sf_exp_e'
p602
a(lp603
(lp604
g5
ag6
aaaS'gsl_sf_exp'
p605
aa(lp606
S'gsl_sf_exp_mult_e'
p607
a(lp608
(lp609
g5
ag6
aa(lp610
g5
ag32
aaaS'gsl_sf_exp_mult'
p611
aa(lp612
S'gsl_sf_expm1_e'
p613
a(lp614
(lp615
g5
ag6
aaaS'gsl_sf_expm1'
p616
aa(lp617
S'gsl_sf_exprel_2_e'
p618
a(lp619
(lp620
g5
ag6
aaaS'gsl_sf_exprel_2'
p621
aa(lp622
S'gsl_sf_exprel_e'
p623
a(lp624
(lp625
g5
ag6
aaaS'gsl_sf_exprel'
p626
aa(lp627
S'gsl_sf_debye_1_e'
p628
a(lp629
(lp630
g5
ag6
aaaS'gsl_sf_debye_1'
p631
aa(lp632
S'gsl_sf_debye_2_e'
p633
a(lp634
(lp635
g5
ag6
aaaS'gsl_sf_debye_2'
p636
aa(lp637
S'gsl_sf_debye_3_e'
p638
a(lp639
(lp640
g5
ag6
aaaS'gsl_sf_debye_3'
p641
aa(lp642
S'gsl_sf_debye_4_e'
p643
a(lp644
(lp645
g5
ag6
aaaS'gsl_sf_debye_4'
p646
aa(lp647
S'gsl_sf_debye_5_e'
p648
a(lp649
(lp650
g5
ag6
aaaS'gsl_sf_debye_5'
p651
aa(lp652
S'gsl_sf_debye_6_e'
p653
a(lp654
(lp655
g5
ag6
aaaS'gsl_sf_debye_6'
p656
aa(lp657
S'gsl_sf_psi_1_e'
p658
a(lp659
(lp660
g5
ag6
aaaS'gsl_sf_psi_1'
p661
aa(lp662
S'gsl_sf_psi_1piy_e'
p663
a(lp664
(lp665
g5
ag32
aaaS'gsl_sf_psi_1piy'
p666
aa(lp667
S'gsl_sf_psi_e'
p668
a(lp669
(lp670
g5
ag6
aaaS'gsl_sf_psi'
p671
aa(lp672
S'gsl_sf_hyperg_0F1_e'
p673
a(lp674
(lp675
g5
aS'c'
p676
aa(lp677
g5
ag6
aaaS'gsl_sf_hyperg_0F1'
p678
aa(lp679
S'gsl_sf_hyperg_1F1_e'
p680
a(lp681
(lp682
g5
ag12
aa(lp683
g5
ag343
aa(lp684
g5
ag6
aaaS'gsl_sf_hyperg_1F1'
p685
aa(lp686
S'gsl_sf_hyperg_2F0_e'
p687
a(lp688
(lp689
g5
ag12
aa(lp690
g5
ag343
aa(lp691
g5
ag6
aaaS'gsl_sf_hyperg_2F0'
p692
aa(lp693
S'gsl_sf_hyperg_2F1_conj_e'
p694
a(lp695
(lp696
g5
aS'aR'
p697
aa(lp698
g5
aS'aI'
p699
aa(lp700
g5
ag676
aa(lp701
g5
ag6
aaaS'gsl_sf_hyperg_2F1_conj'
p702
aa(lp703
S'gsl_sf_hyperg_2F1_conj_renorm_e'
p704
a(lp705
(lp706
g5
aS'aR'
p707
aa(lp708
g5
aS'aI'
p709
aa(lp710
g5
ag676
aa(lp711
g5
ag6
aaaS'gsl_sf_hyperg_2F1_conj_renorm'
p712
aa(lp713
S'gsl_sf_hyperg_2F1_e'
p714
a(lp715
(lp716
g5
ag12
aa(lp717
g5
ag343
aa(lp718
g5
ag676
aa(lp719
g5
ag6
aaaS'gsl_sf_hyperg_2F1'
p720
aa(lp721
S'gsl_sf_hyperg_2F1_renorm_e'
p722
a(lp723
(lp724
g5
ag12
aa(lp725
g5
ag343
aa(lp726
g5
ag676
aa(lp727
g5
ag6
aaaS'gsl_sf_hyperg_2F1_renorm'
p728
aa(lp729
S'gsl_sf_hyperg_U_e'
p730
a(lp731
(lp732
g5
ag12
aa(lp733
g5
ag343
aa(lp734
g5
ag6
aaaS'gsl_sf_hyperg_U'
p735
aa(lp736
S'gsl_sf_dawson_e'
p737
a(lp738
(lp739
g5
ag6
aaaS'gsl_sf_dawson'
p740
aa(lp741
S'gsl_sf_ellint_D_e'
p742
a(lp743
(lp744
g5
aS'phi'
p745
aa(lp746
g5
aS'k'
p747
aa(lp748
g261
aS'mode'
p749
aaaS'gsl_sf_ellint_D'
p750
aa(lp751
S'gsl_sf_ellint_Dcomp_e'
p752
a(lp753
(lp754
g5
ag747
aa(lp755
g261
aS'mode'
p756
aaaS'gsl_sf_ellint_Dcomp'
p757
aa(lp758
S'gsl_sf_ellint_E_e'
p759
a(lp760
(lp761
g5
aS'phi'
p762
aa(lp763
g5
ag747
aa(lp764
g261
aS'mode'
p765
aaaS'gsl_sf_ellint_E'
p766
aa(lp767
S'gsl_sf_ellint_Ecomp_e'
p768
a(lp769
(lp770
g5
ag747
aa(lp771
g261
aS'mode'
p772
aaaS'gsl_sf_ellint_Ecomp'
p773
aa(lp774
S'gsl_sf_ellint_F_e'
p775
a(lp776
(lp777
g5
aS'phi'
p778
aa(lp779
g5
ag747
aa(lp780
g261
aS'mode'
p781
aaaS'gsl_sf_ellint_F'
p782
aa(lp783
S'gsl_sf_ellint_Kcomp_e'
p784
a(lp785
(lp786
g5
ag747
aa(lp787
g261
aS'mode'
p788
aaaS'gsl_sf_ellint_Kcomp'
p789
aa(lp790
S'gsl_sf_ellint_P_e'
p791
a(lp792
(lp793
g5
aS'phi'
p794
aa(lp795
g5
ag747
aa(lp796
g5
aS'n'
p797
aa(lp798
g261
aS'mode'
p799
aaaS'gsl_sf_ellint_P'
p800
aa(lp801
S'gsl_sf_ellint_Pcomp_e'
p802
a(lp803
(lp804
g5
ag747
aa(lp805
g5
ag797
aa(lp806
g261
aS'mode'
p807
aaaS'gsl_sf_ellint_Pcomp'
p808
aa(lp809
S'gsl_sf_ellint_RC_e'
p810
a(lp811
(lp812
g5
ag6
aa(lp813
g5
ag32
aa(lp814
g261
aS'mode'
p815
aaaS'gsl_sf_ellint_RC'
p816
aa(lp817
S'gsl_sf_ellint_RD_e'
p818
a(lp819
(lp820
g5
ag6
aa(lp821
g5
ag32
aa(lp822
g5
aS'z'
p823
aa(lp824
g261
aS'mode'
p825
aaaS'gsl_sf_ellint_RD'
p826
aa(lp827
S'gsl_sf_ellint_RF_e'
p828
a(lp829
(lp830
g5
ag6
aa(lp831
g5
ag32
aa(lp832
g5
ag823
aa(lp833
g261
aS'mode'
p834
aaaS'gsl_sf_ellint_RF'
p835
aa(lp836
S'gsl_sf_ellint_RJ_e'
p837
a(lp838
(lp839
g5
ag6
aa(lp840
g5
ag32
aa(lp841
g5
ag823
aa(lp842
g5
aS'p'
p843
aa(lp844
g261
aS'mode'
p845
aaaS'gsl_sf_ellint_RJ'
p846
aa(lp847
S'gsl_sf_eta_e'
p848
a(lp849
(lp850
g5
aS's'
p851
aaaS'gsl_sf_eta'
p852
aa(lp853
S'gsl_sf_hzeta_e'
p854
a(lp855
(lp856
g5
ag851
aa(lp857
g5
aS'q'
p858
aaaS'gsl_sf_hzeta'
p859
aa(lp860
S'gsl_sf_zeta_e'
p861
a(lp862
(lp863
g5
ag851
aaaS'gsl_sf_zeta'
p864
aa(lp865
S'gsl_sf_zetam1_e'
p866
a(lp867
(lp868
g5
ag851
aaaS'gsl_sf_zetam1'
p869
aa(lp870
S'gsl_sf_cos_pi_e'
p871
a(lp872
(lp873
g5
ag6
aaaS'gsl_sf_cos_pi'
p874
aa(lp875
S'gsl_sf_sin_pi_e'
p876
a(lp877
(lp878
g5
ag6
aaaS'gsl_sf_sin_pi'
p879
aa(lp880
S'gsl_sf_Chi_e'
p881
a(lp882
(lp883
g5
ag6
aaaS'gsl_sf_Chi'
p884
aa(lp885
S'gsl_sf_Ci_e'
p886
a(lp887
(lp888
g5
ag6
aaaS'gsl_sf_Ci'
p889
aa(lp890
S'gsl_sf_Shi_e'
p891
a(lp892
(lp893
g5
ag6
aaaS'gsl_sf_Shi'
p894
aa(lp895
S'gsl_sf_Si_e'
p896
a(lp897
(lp898
g5
ag6
aaaS'gsl_sf_Si'
p899
aa(lp900
S'gsl_sf_atanint_e'
p901
a(lp902
(lp903
g5
ag6
aaaS'gsl_sf_atanint'
p904
aa(lp905
S'gsl_sf_expint_3_e'
p906
a(lp907
(lp908
g5
ag6
aaaS'gsl_sf_expint_3'
p909
aa(lp910
S'gsl_sf_expint_E1_e'
p911
a(lp912
(lp913
g5
ag6
aaaS'gsl_sf_expint_E1'
p914
aa(lp915
S'gsl_sf_expint_E1_scaled_e'
p916
a(lp917
(lp918
g5
ag6
aaaS'gsl_sf_expint_E1_scaled'
p919
aa(lp920
S'gsl_sf_expint_E2_e'
p921
a(lp922
(lp923
g5
ag6
aaaS'gsl_sf_expint_E2'
p924
aa(lp925
S'gsl_sf_expint_E2_scaled_e'
p926
a(lp927
(lp928
g5
ag6
aaaS'gsl_sf_expint_E2_scaled'
p929
aa(lp930
S'gsl_sf_expint_Ei_e'
p931
a(lp932
(lp933
g5
ag6
aaaS'gsl_sf_expint_Ei'
p934
aa(lp935
S'gsl_sf_expint_Ei_scaled_e'
p936
a(lp937
(lp938
g5
ag6
aaaS'gsl_sf_expint_Ei_scaled'
p939
aa.